; ModuleID = '11/325.c'
source_filename = "11/325.c"
target datalayout = "e-m:e-p270:32:32-p271:32:32-p272:64:64-i64:64-f80:128-n8:16:32:64-S128"
target triple = "x86_64-pc-linux-gnu"

@.str = private unnamed_addr constant [9 x i8] c"%d %d %d\00", align 1
@.str.1 = private unnamed_addr constant [4 x i8] c"%d\0A\00", align 1

; Function Attrs: noinline nounwind uwtable
define dso_local i32 @main() #0 {
  %1 = alloca i32, align 4
  %2 = alloca i32, align 4
  %3 = alloca i32, align 4
  %4 = alloca i32, align 4
  %5 = alloca i32, align 4
  %6 = alloca [12 x i32], align 16
  %7 = alloca i32, align 4
  %8 = alloca i32, align 4
  store i32 0, i32* %1, align 4
  %9 = call i32 (i8*, ...) @__isoc99_scanf(i8* getelementptr inbounds ([9 x i8], [9 x i8]* @.str, i64 0, i64 0), i32* %2, i32* %3, i32* %4)
  %10 = getelementptr inbounds [12 x i32], [12 x i32]* %6, i64 0, i64 0
  store i32 31, i32* %10, align 16
  %11 = getelementptr inbounds [12 x i32], [12 x i32]* %6, i64 0, i64 2
  store i32 31, i32* %11, align 8
  %12 = getelementptr inbounds [12 x i32], [12 x i32]* %6, i64 0, i64 3
  store i32 30, i32* %12, align 4
  %13 = getelementptr inbounds [12 x i32], [12 x i32]* %6, i64 0, i64 4
  store i32 31, i32* %13, align 16
  %14 = getelementptr inbounds [12 x i32], [12 x i32]* %6, i64 0, i64 5
  store i32 30, i32* %14, align 4
  %15 = getelementptr inbounds [12 x i32], [12 x i32]* %6, i64 0, i64 6
  store i32 31, i32* %15, align 8
  %16 = getelementptr inbounds [12 x i32], [12 x i32]* %6, i64 0, i64 7
  store i32 31, i32* %16, align 4
  %17 = getelementptr inbounds [12 x i32], [12 x i32]* %6, i64 0, i64 8
  store i32 30, i32* %17, align 16
  %18 = getelementptr inbounds [12 x i32], [12 x i32]* %6, i64 0, i64 9
  store i32 31, i32* %18, align 4
  %19 = getelementptr inbounds [12 x i32], [12 x i32]* %6, i64 0, i64 10
  store i32 30, i32* %19, align 8
  %20 = getelementptr inbounds [12 x i32], [12 x i32]* %6, i64 0, i64 11
  store i32 31, i32* %20, align 4
  store i32 0, i32* %8, align 4
  store i32 0, i32* %7, align 4
  br label %21

21:                                               ; preds = %55, %0
  %22 = load i32, i32* %7, align 4
  %23 = load i32, i32* %3, align 4
  %24 = sub nsw i32 %23, 1
  %25 = icmp slt i32 %22, %24
  br i1 %25, label %26, label %58

26:                                               ; preds = %21
  %27 = load i32, i32* %2, align 4
  %28 = srem i32 %27, 4
  %29 = icmp eq i32 %28, 0
  br i1 %29, label %30, label %34

30:                                               ; preds = %26
  %31 = load i32, i32* %2, align 4
  %32 = srem i32 %31, 100
  %33 = icmp ne i32 %32, 0
  br i1 %33, label %38, label %34

34:                                               ; preds = %30, %26
  %35 = load i32, i32* %2, align 4
  %36 = srem i32 %35, 400
  %37 = icmp eq i32 %36, 0
  br i1 %37, label %38, label %46

38:                                               ; preds = %34, %30
  %39 = getelementptr inbounds [12 x i32], [12 x i32]* %6, i64 0, i64 1
  store i32 29, i32* %39, align 4
  %40 = load i32, i32* %7, align 4
  %41 = sext i32 %40 to i64
  %42 = getelementptr inbounds [12 x i32], [12 x i32]* %6, i64 0, i64 %41
  %43 = load i32, i32* %42, align 4
  %44 = load i32, i32* %8, align 4
  %45 = add nsw i32 %43, %44
  store i32 %45, i32* %8, align 4
  br label %54

46:                                               ; preds = %34
  %47 = getelementptr inbounds [12 x i32], [12 x i32]* %6, i64 0, i64 1
  store i32 28, i32* %47, align 4
  %48 = load i32, i32* %7, align 4
  %49 = sext i32 %48 to i64
  %50 = getelementptr inbounds [12 x i32], [12 x i32]* %6, i64 0, i64 %49
  %51 = load i32, i32* %50, align 4
  %52 = load i32, i32* %8, align 4
  %53 = add nsw i32 %51, %52
  store i32 %53, i32* %8, align 4
  br label %54

54:                                               ; preds = %46, %38
  br label %55

55:                                               ; preds = %54
  %56 = load i32, i32* %7, align 4
  %57 = add nsw i32 %56, 1
  store i32 %57, i32* %7, align 4
  br label %21

58:                                               ; preds = %21
  %59 = load i32, i32* %8, align 4
  %60 = load i32, i32* %4, align 4
  %61 = add nsw i32 %59, %60
  store i32 %61, i32* %5, align 4
  %62 = load i32, i32* %5, align 4
  %63 = call i32 (i8*, ...) @printf(i8* getelementptr inbounds ([4 x i8], [4 x i8]* @.str.1, i64 0, i64 0), i32 %62)
  ret i32 0
}

declare dso_local i32 @__isoc99_scanf(i8*, ...) #1

declare dso_local i32 @printf(i8*, ...) #1


!llvm.module.flags = !{!0}
!llvm.ident = !{!1}

!0 = !{i32 1, !"wchar_size", i32 4}
!1 = !{!"clang version 10.0.0-4ubuntu1 "}
